; Function Attrs: mustprogress uwtable
define dso_local noundef ptr @_ZN4Luau9TypeArena13freshTypePackEPNS_5ScopeE(ptr noundef nonnull align 8 dereferenceable(88) %0, ptr noundef %1) local_unnamed_addr #1 align 2 personality ptr @__gxx_personality_v0 {
  %3 = alloca %"class.Luau::Variant.11", align 8
  %4 = alloca %"struct.Luau::FreeTypePack", align 8
  call void @_ZN4Luau12FreeTypePackC1EPNS_5ScopeE(ptr noundef nonnull align 8 dereferenceable(24) %4, ptr noundef %1)
  call void @llvm.lifetime.start.p0(i64 72, ptr nonnull %3)
  %5 = getelementptr inbounds nuw i8, ptr %0, i64 72
  %6 = load i64, ptr %5, align 8
  %7 = icmp ugt i64 %6, 371
  br i1 %7, label %8, label %10

8:                                                ; preds = %2
  %9 = getelementptr inbounds nuw i8, ptr %0, i64 40
  call void @_ZN4Luau14TypedAllocatorINS_11TypePackVarEE11appendBlockEv(ptr noundef nonnull align 8 dereferenceable(40) %9)
  %.pre.i = load i64, ptr %5, align 8
  br label %10

10:                                               ; preds = %8, %2
  %11 = phi i64 [ %.pre.i, %8 ], [ %6, %2 ]
  %12 = getelementptr inbounds nuw i8, ptr %0, i64 56
  %13 = load ptr, ptr %12, align 8
  %14 = getelementptr inbounds i8, ptr %13, i64 -8
  %15 = load ptr, ptr %14, align 8
  %16 = getelementptr inbounds %"struct.Luau::TypePackVar", ptr %15, i64 %11
  store i32 2, ptr %3, align 8
  %17 = getelementptr inbounds nuw i8, ptr %3, i64 8
  call void @llvm.memcpy.p0.p0.i64(ptr noundef nonnull align 8 dereferenceable(24) %17, ptr noundef nonnull align 8 dereferenceable(24) %4, i64 24, i1 false)
  invoke void @_ZN4Luau11TypePackVarC1EONS_7VariantIJNS_9Unifiable5BoundIPKS0_EENS2_5ErrorENS_12FreeTypePackENS_15GenericTypePackENS_8TypePackENS_16VariadicTypePackENS_15BlockedTypePackENS_26TypeFamilyInstanceTypePackEEEE(ptr noundef nonnull align 8 dereferenceable(88) %16, ptr noundef nonnull align 8 dereferenceable(72) %3)
          to label %18 unwind label %26

18:                                               ; preds = %10
  %19 = load i32, ptr %3, align 8
  %20 = sext i32 %19 to i64
  %21 = getelementptr inbounds [8 x ptr], ptr @_ZN4Luau7VariantIJNS_9Unifiable5BoundIPKNS_11TypePackVarEEENS1_5ErrorENS_12FreeTypePackENS_15GenericTypePackENS_8TypePackENS_16VariadicTypePackENS_15BlockedTypePackENS_26TypeFamilyInstanceTypePackEEE9tableDtorE, i64 0, i64 %20
  %22 = load ptr, ptr %21, align 8
  invoke void %22(ptr noundef nonnull %17)
          to label %_ZN4Luau14TypedAllocatorINS_11TypePackVarEE8allocateIJNS_12FreeTypePackEEEEPS1_DpOT_.exit unwind label %23

23:                                               ; preds = %18
  %24 = landingpad { ptr, i32 }
          catch ptr null
  %25 = extractvalue { ptr, i32 } %24, 0
  call void @__clang_call_terminate(ptr %25) #17
  unreachable

26:                                               ; preds = %10
  %27 = landingpad { ptr, i32 }
          cleanup
  %28 = load i32, ptr %3, align 8
  %29 = sext i32 %28 to i64
  %30 = getelementptr inbounds [8 x ptr], ptr @_ZN4Luau7VariantIJNS_9Unifiable5BoundIPKNS_11TypePackVarEEENS1_5ErrorENS_12FreeTypePackENS_15GenericTypePackENS_8TypePackENS_16VariadicTypePackENS_15BlockedTypePackENS_26TypeFamilyInstanceTypePackEEE9tableDtorE, i64 0, i64 %29
  %31 = load ptr, ptr %30, align 8
  invoke void %31(ptr noundef nonnull %17)
          to label %_ZN4Luau7VariantIJNS_9Unifiable5BoundIPKNS_11TypePackVarEEENS1_5ErrorENS_12FreeTypePackENS_15GenericTypePackENS_8TypePackENS_16VariadicTypePackENS_15BlockedTypePackENS_26TypeFamilyInstanceTypePackEEED2Ev.exit6.i unwind label %32

32:                                               ; preds = %26
  %33 = landingpad { ptr, i32 }
          catch ptr null
  %34 = extractvalue { ptr, i32 } %33, 0
  call void @__clang_call_terminate(ptr %34) #17
  unreachable

_ZN4Luau7VariantIJNS_9Unifiable5BoundIPKNS_11TypePackVarEEENS1_5ErrorENS_12FreeTypePackENS_15GenericTypePackENS_8TypePackENS_16VariadicTypePackENS_15BlockedTypePackENS_26TypeFamilyInstanceTypePackEEED2Ev.exit6.i: ; preds = %26
  resume { ptr, i32 } %27

_ZN4Luau14TypedAllocatorINS_11TypePackVarEE8allocateIJNS_12FreeTypePackEEEEPS1_DpOT_.exit: ; preds = %18
  %35 = load i64, ptr %5, align 8
  %36 = add i64 %35, 1
  store i64 %36, ptr %5, align 8
  call void @llvm.lifetime.end.p0(i64 72, ptr nonnull %3)
  %37 = call noundef ptr @_ZN4Luau9asMutableEPKNS_11TypePackVarE(ptr noundef nonnull %16)
  %38 = getelementptr inbounds nuw i8, ptr %37, i64 80
  store ptr %0, ptr %38, align 8
  ret ptr %16
}